target datalayout = "e-m:e-p270:32:32-p271:32:32-p272:64:64-i64:64-i128:128-f80:128-n8:16:32:64-S128"
target triple = "x86_64-pc-linux-gnu"

%struct.lua_TValue = type { %union.Value, [1 x i32], i32 }
%union.Value = type { ptr }

; Function Attrs: mustprogress nounwind uwtable
define internal noundef i32 @_ZL13luauF_replaceP9lua_StateP10lua_TValueS2_iS2_i(ptr noundef %0, ptr noundef %1, ptr noundef %2, i32 noundef %3, ptr noundef %4, i32 noundef %5) #0 {
  %7 = alloca i32, align 4
  %8 = alloca ptr, align 8
  %9 = alloca ptr, align 8
  %10 = alloca ptr, align 8
  %11 = alloca i32, align 4
  %12 = alloca ptr, align 8
  %13 = alloca i32, align 4
  %14 = alloca double, align 8
  %15 = alloca double, align 8
  %16 = alloca double, align 8
  %17 = alloca i32, align 4
  %18 = alloca i32, align 4
  %19 = alloca i32, align 4
  %20 = alloca i32, align 4
  %21 = alloca i32, align 4
  %22 = alloca ptr, align 8
  %23 = alloca i32, align 4
  %24 = alloca double, align 8
  %25 = alloca i32, align 4
  %26 = alloca i32, align 4
  %27 = alloca i32, align 4
  %28 = alloca ptr, align 8
  store ptr %0, ptr %8, align 8, !tbaa !4
  store ptr %1, ptr %9, align 8, !tbaa !9
  store ptr %2, ptr %10, align 8, !tbaa !9
  store i32 %3, ptr %11, align 4, !tbaa !11
  store ptr %4, ptr %12, align 8, !tbaa !9
  store i32 %5, ptr %13, align 4, !tbaa !11
  %29 = load i32, ptr %13, align 4, !tbaa !11
  %30 = icmp sge i32 %29, 3
  br i1 %30, label %31, label %151

31:                                               ; preds = %6
  %32 = load i32, ptr %11, align 4, !tbaa !11
  %33 = icmp sle i32 %32, 1
  br i1 %33, label %34, label %151

34:                                               ; preds = %31
  %35 = load ptr, ptr %10, align 8, !tbaa !9
  %36 = getelementptr inbounds nuw %struct.lua_TValue, ptr %35, i32 0, i32 2
  %37 = load i32, ptr %36, align 4, !tbaa !13
  %38 = icmp eq i32 %37, 3
  br i1 %38, label %39, label %151

39:                                               ; preds = %34
  %40 = load ptr, ptr %12, align 8, !tbaa !9
  %41 = getelementptr inbounds nuw %struct.lua_TValue, ptr %40, i32 0, i32 2
  %42 = load i32, ptr %41, align 4, !tbaa !13
  %43 = icmp eq i32 %42, 3
  br i1 %43, label %44, label %151

44:                                               ; preds = %39
  %45 = load ptr, ptr %12, align 8, !tbaa !9
  %46 = getelementptr inbounds %struct.lua_TValue, ptr %45, i64 1
  %47 = getelementptr inbounds nuw %struct.lua_TValue, ptr %46, i32 0, i32 2
  %48 = load i32, ptr %47, align 4, !tbaa !13
  %49 = icmp eq i32 %48, 3
  br i1 %49, label %50, label %151

50:                                               ; preds = %44
  call void @llvm.lifetime.start.p0(i64 8, ptr %14) #17
  %51 = load ptr, ptr %10, align 8, !tbaa !9
  %52 = getelementptr inbounds nuw %struct.lua_TValue, ptr %51, i32 0, i32 0
  %53 = load double, ptr %52, align 8, !tbaa !15
  store double %53, ptr %14, align 8, !tbaa !16
  call void @llvm.lifetime.start.p0(i64 8, ptr %15) #17
  %54 = load ptr, ptr %12, align 8, !tbaa !9
  %55 = getelementptr inbounds nuw %struct.lua_TValue, ptr %54, i32 0, i32 0
  %56 = load double, ptr %55, align 8, !tbaa !15
  store double %56, ptr %15, align 8, !tbaa !16
  call void @llvm.lifetime.start.p0(i64 8, ptr %16) #17
  %57 = load ptr, ptr %12, align 8, !tbaa !9
  %58 = getelementptr inbounds %struct.lua_TValue, ptr %57, i64 1
  %59 = getelementptr inbounds nuw %struct.lua_TValue, ptr %58, i32 0, i32 0
  %60 = load double, ptr %59, align 8, !tbaa !15
  store double %60, ptr %16, align 8, !tbaa !16
  call void @llvm.lifetime.start.p0(i64 4, ptr %17) #17
  call void @llvm.lifetime.start.p0(i64 4, ptr %18) #17
  %61 = load double, ptr %14, align 8, !tbaa !16
  %62 = fptosi double %61 to i64
  %63 = trunc i64 %62 to i32
  store i32 %63, ptr %17, align 4, !tbaa !11
  %64 = load double, ptr %15, align 8, !tbaa !16
  %65 = fptosi double %64 to i64
  %66 = trunc i64 %65 to i32
  store i32 %66, ptr %18, align 4, !tbaa !11
  call void @llvm.lifetime.start.p0(i64 4, ptr %19) #17
  %67 = load double, ptr %16, align 8, !tbaa !16
  %68 = fptosi double %67 to i32
  store i32 %68, ptr %19, align 4, !tbaa !11
  %69 = load i32, ptr %13, align 4, !tbaa !11
  %70 = icmp eq i32 %69, 3
  br i1 %70, label %71, label %95

71:                                               ; preds = %50
  %72 = load i32, ptr %19, align 4, !tbaa !11
  %73 = icmp ult i32 %72, 32
  br i1 %73, label %74, label %94

74:                                               ; preds = %71
  call void @llvm.lifetime.start.p0(i64 4, ptr %20) #17
  store i32 1, ptr %20, align 4, !tbaa !11
  call void @llvm.lifetime.start.p0(i64 4, ptr %21) #17
  %75 = load i32, ptr %17, align 4, !tbaa !11
  %76 = load i32, ptr %20, align 4, !tbaa !11
  %77 = load i32, ptr %19, align 4, !tbaa !11
  %78 = shl i32 %76, %77
  %79 = xor i32 %78, -1
  %80 = and i32 %75, %79
  %81 = load i32, ptr %18, align 4, !tbaa !11
  %82 = load i32, ptr %20, align 4, !tbaa !11
  %83 = and i32 %81, %82
  %84 = load i32, ptr %19, align 4, !tbaa !11
  %85 = shl i32 %83, %84
  %86 = or i32 %80, %85
  store i32 %86, ptr %21, align 4, !tbaa !11
  call void @llvm.lifetime.start.p0(i64 8, ptr %22) #17
  %87 = load ptr, ptr %9, align 8, !tbaa !9
  store ptr %87, ptr %22, align 8, !tbaa !9
  %88 = load i32, ptr %21, align 4, !tbaa !11
  %89 = uitofp i32 %88 to double
  %90 = load ptr, ptr %22, align 8, !tbaa !9
  %91 = getelementptr inbounds nuw %struct.lua_TValue, ptr %90, i32 0, i32 0
  store double %89, ptr %91, align 8, !tbaa !15
  %92 = load ptr, ptr %22, align 8, !tbaa !9
  %93 = getelementptr inbounds nuw %struct.lua_TValue, ptr %92, i32 0, i32 2
  store i32 3, ptr %93, align 4, !tbaa !13
  call void @llvm.lifetime.end.p0(i64 8, ptr %22) #17
  store i32 1, ptr %7, align 4
  store i32 1, ptr %23, align 4
  call void @llvm.lifetime.end.p0(i64 4, ptr %21) #17
  call void @llvm.lifetime.end.p0(i64 4, ptr %20) #17
  br label %148

94:                                               ; preds = %71
  br label %147

95:                                               ; preds = %50
  %96 = load ptr, ptr %12, align 8, !tbaa !9
  %97 = getelementptr inbounds %struct.lua_TValue, ptr %96, i64 2
  %98 = getelementptr inbounds nuw %struct.lua_TValue, ptr %97, i32 0, i32 2
  %99 = load i32, ptr %98, align 4, !tbaa !13
  %100 = icmp eq i32 %99, 3
  br i1 %100, label %101, label %146

101:                                              ; preds = %95
  call void @llvm.lifetime.start.p0(i64 8, ptr %24) #17
  %102 = load ptr, ptr %12, align 8, !tbaa !9
  %103 = getelementptr inbounds %struct.lua_TValue, ptr %102, i64 2
  %104 = getelementptr inbounds nuw %struct.lua_TValue, ptr %103, i32 0, i32 0
  %105 = load double, ptr %104, align 8, !tbaa !15
  store double %105, ptr %24, align 8, !tbaa !16
  call void @llvm.lifetime.start.p0(i64 4, ptr %25) #17
  %106 = load double, ptr %24, align 8, !tbaa !16
  %107 = fptosi double %106 to i32
  store i32 %107, ptr %25, align 4, !tbaa !11
  %108 = load i32, ptr %19, align 4, !tbaa !11
  %109 = icmp sge i32 %108, 0
  br i1 %109, label %110, label %142

110:                                              ; preds = %101
  %111 = load i32, ptr %25, align 4, !tbaa !11
  %112 = icmp sgt i32 %111, 0
  br i1 %112, label %113, label %142

113:                                              ; preds = %110
  %114 = load i32, ptr %19, align 4, !tbaa !11
  %115 = load i32, ptr %25, align 4, !tbaa !11
  %116 = add nsw i32 %114, %115
  %117 = icmp sle i32 %116, 32
  br i1 %117, label %118, label %142

118:                                              ; preds = %113
  call void @llvm.lifetime.start.p0(i64 4, ptr %26) #17
  %119 = load i32, ptr %25, align 4, !tbaa !11
  %120 = sub nsw i32 %119, 1
  %121 = shl i32 -2, %120
  %122 = xor i32 %121, -1
  store i32 %122, ptr %26, align 4, !tbaa !11
  call void @llvm.lifetime.start.p0(i64 4, ptr %27) #17
  %123 = load i32, ptr %17, align 4, !tbaa !11
  %124 = load i32, ptr %26, align 4, !tbaa !11
  %125 = load i32, ptr %19, align 4, !tbaa !11
  %126 = shl i32 %124, %125
  %127 = xor i32 %126, -1
  %128 = and i32 %123, %127
  %129 = load i32, ptr %18, align 4, !tbaa !11
  %130 = load i32, ptr %26, align 4, !tbaa !11
  %131 = and i32 %129, %130
  %132 = load i32, ptr %19, align 4, !tbaa !11
  %133 = shl i32 %131, %132
  %134 = or i32 %128, %133
  store i32 %134, ptr %27, align 4, !tbaa !11
  call void @llvm.lifetime.start.p0(i64 8, ptr %28) #17
  %135 = load ptr, ptr %9, align 8, !tbaa !9
  store ptr %135, ptr %28, align 8, !tbaa !9
  %136 = load i32, ptr %27, align 4, !tbaa !11
  %137 = uitofp i32 %136 to double
  %138 = load ptr, ptr %28, align 8, !tbaa !9
  %139 = getelementptr inbounds nuw %struct.lua_TValue, ptr %138, i32 0, i32 0
  store double %137, ptr %139, align 8, !tbaa !15
  %140 = load ptr, ptr %28, align 8, !tbaa !9
  %141 = getelementptr inbounds nuw %struct.lua_TValue, ptr %140, i32 0, i32 2
  store i32 3, ptr %141, align 4, !tbaa !13
  call void @llvm.lifetime.end.p0(i64 8, ptr %28) #17
  store i32 1, ptr %7, align 4
  store i32 1, ptr %23, align 4
  call void @llvm.lifetime.end.p0(i64 4, ptr %27) #17
  call void @llvm.lifetime.end.p0(i64 4, ptr %26) #17
  br label %143

142:                                              ; preds = %113, %110, %101
  store i32 0, ptr %23, align 4
  br label %143

143:                                              ; preds = %142, %118
  call void @llvm.lifetime.end.p0(i64 4, ptr %25) #17
  call void @llvm.lifetime.end.p0(i64 8, ptr %24) #17
  %144 = load i32, ptr %23, align 4
  switch i32 %144, label %148 [
    i32 0, label %145
  ]

145:                                              ; preds = %143
  br label %146

146:                                              ; preds = %145, %95
  br label %147

147:                                              ; preds = %146, %94
  store i32 0, ptr %23, align 4
  br label %148

148:                                              ; preds = %147, %143, %74
  call void @llvm.lifetime.end.p0(i64 4, ptr %19) #17
  call void @llvm.lifetime.end.p0(i64 4, ptr %18) #17
  call void @llvm.lifetime.end.p0(i64 4, ptr %17) #17
  call void @llvm.lifetime.end.p0(i64 8, ptr %16) #17
  call void @llvm.lifetime.end.p0(i64 8, ptr %15) #17
  call void @llvm.lifetime.end.p0(i64 8, ptr %14) #17
  %149 = load i32, ptr %23, align 4
  switch i32 %149, label %154 [
    i32 0, label %150
    i32 1, label %152
  ]

150:                                              ; preds = %148
  br label %151

151:                                              ; preds = %150, %44, %39, %34, %31, %6
  store i32 -1, ptr %7, align 4
  br label %152

152:                                              ; preds = %151, %148
  %153 = load i32, ptr %7, align 4
  ret i32 %153

154:                                              ; preds = %148
  unreachable
}