; Function Attrs: mustprogress nofree norecurse nosync nounwind willreturn memory(argmem: readwrite) uwtable
define internal noundef range(i32 -1, 2) i32 @_ZL13luauF_replaceP9lua_StateP10lua_TValueS2_iS2_i(ptr readnone captures(none) %0, ptr noundef writeonly captures(none) %1, ptr noundef readonly captures(none) %2, i32 noundef %3, ptr noundef readonly captures(none) %4, i32 noundef %5) #1 {
  %7 = icmp sgt i32 %5, 2
  %8 = icmp slt i32 %3, 2
  %or.cond = and i1 %8, %7
  br i1 %or.cond, label %9, label %.thread

9:                                                ; preds = %6
  %10 = getelementptr inbounds nuw i8, ptr %2, i64 12
  %11 = load i32, ptr %10, align 4, !tbaa !4
  %12 = icmp eq i32 %11, 3
  br i1 %12, label %13, label %.thread

13:                                               ; preds = %9
  %14 = getelementptr inbounds nuw i8, ptr %4, i64 12
  %15 = load i32, ptr %14, align 4, !tbaa !4
  %16 = icmp eq i32 %15, 3
  br i1 %16, label %17, label %.thread

17:                                               ; preds = %13
  %18 = getelementptr inbounds nuw i8, ptr %4, i64 28
  %19 = load i32, ptr %18, align 4, !tbaa !4
  %20 = icmp eq i32 %19, 3
  br i1 %20, label %21, label %.thread

21:                                               ; preds = %17
  %22 = getelementptr inbounds nuw i8, ptr %4, i64 16
  %23 = load double, ptr %2, align 8, !tbaa !9
  %24 = load double, ptr %4, align 8, !tbaa !9
  %25 = load double, ptr %22, align 8, !tbaa !9
  %26 = fptosi double %23 to i64
  %27 = trunc i64 %26 to i32
  %28 = fptosi double %24 to i64
  %29 = trunc i64 %28 to i32
  %30 = fptosi double %25 to i32
  %31 = icmp eq i32 %5, 3
  br i1 %31, label %32, label %36

32:                                               ; preds = %21
  %33 = icmp ult i32 %30, 32
  br i1 %33, label %34, label %.thread

34:                                               ; preds = %32
  %35 = and i32 %29, 1
  br label %.thread.sink.split

36:                                               ; preds = %21
  %37 = getelementptr inbounds nuw i8, ptr %4, i64 44
  %38 = load i32, ptr %37, align 4, !tbaa !4
  %39 = icmp eq i32 %38, 3
  br i1 %39, label %40, label %.thread

40:                                               ; preds = %36
  %41 = getelementptr inbounds nuw i8, ptr %4, i64 32
  %42 = load double, ptr %41, align 8, !tbaa !9
  %43 = fptosi double %42 to i32
  %44 = icmp sgt i32 %30, -1
  %45 = icmp sgt i32 %43, 0
  %or.cond3 = select i1 %44, i1 %45, i1 false
  %46 = add nuw nsw i32 %43, %30
  %47 = icmp slt i32 %46, 33
  %or.cond51 = select i1 %or.cond3, i1 %47, i1 false
  br i1 %or.cond51, label %.critedge, label %.thread

.critedge:                                        ; preds = %40
  %48 = add nsw i32 %43, -1
  %49 = shl i32 -2, %48
  %50 = xor i32 %49, -1
  %51 = and i32 %50, %29
  br label %.thread.sink.split

.thread.sink.split:                               ; preds = %.critedge, %34
  %.sink56 = phi i32 [ %35, %34 ], [ %51, %.critedge ]
  %.pn57 = phi i32 [ 1, %34 ], [ %50, %.critedge ]
  %.pn.in = shl i32 %.pn57, %30
  %.pn = xor i32 %.pn.in, -1
  %.sink = and i32 %.pn, %27
  %52 = shl i32 %.sink56, %30
  %53 = or i32 %.sink, %52
  %54 = uitofp i32 %53 to double
  store double %54, ptr %1, align 8, !tbaa !9
  %55 = getelementptr inbounds nuw i8, ptr %1, i64 12
  store i32 3, ptr %55, align 4, !tbaa !4
  br label %.thread

.thread:                                          ; preds = %.thread.sink.split, %32, %36, %40, %6, %9, %13, %17
  %.3 = phi i32 [ -1, %17 ], [ -1, %13 ], [ -1, %9 ], [ -1, %6 ], [ -1, %40 ], [ -1, %36 ], [ -1, %32 ], [ 1, %.thread.sink.split ]
  ret i32 %.3
}